---
triple:          'arm64-apple-darwin'
binary-path:     "14442 벽 부수고 이동하기 2"
relocations:
  - { offsetInCU: 0x3F, offset: 0x3F, size: 0x8, addend: 0x0, symName: _board, symObjAddr: 0x3773C, symBinAddr: 0x10000C020, symSize: 0x0 }
  - { offsetInCU: 0x76, offset: 0x76, size: 0x8, addend: 0x0, symName: _vis, symObjAddr: 0x12C14D, symBinAddr: 0x100100A31, symSize: 0x0 }
  - { offsetInCU: 0xAC, offset: 0xAC, size: 0x8, addend: 0x0, symName: _dy, symObjAddr: 0x5F90, symBinAddr: 0x10000C000, symSize: 0x0 }
  - { offsetInCU: 0xD4, offset: 0xD4, size: 0x8, addend: 0x0, symName: _dx, symObjAddr: 0x5FA0, symBinAddr: 0x10000C010, symSize: 0x0 }
  - { offsetInCU: 0x58C4, offset: 0x58C4, size: 0x8, addend: 0x0, symName: __ZNSt3__124__put_character_sequenceB8ue170006IcNS_11char_traitsIcEEEERNS_13basic_ostreamIT_T0_EES7_PKS4_m, symObjAddr: 0x5290, symBinAddr: 0x100006DC4, symSize: 0x1F4 }
  - { offsetInCU: 0x6C9D, offset: 0x6C9D, size: 0x8, addend: 0x0, symName: __ZNSt3__1rsB8ue170006IcNS_11char_traitsIcEEEERNS_13basic_istreamIT_T0_EES7_RS4_, symObjAddr: 0x64C, symBinAddr: 0x100002180, symSize: 0x190 }
  - { offsetInCU: 0x6ECE, offset: 0x6ECE, size: 0x8, addend: 0x0, symName: __ZNSt3__19make_pairB8ue170006INS_4pairIiiEES2_EENS1_INS_18__unwrap_ref_decayIT_E4typeENS3_IT0_E4typeEEEOS4_OS7_, symObjAddr: 0x834, symBinAddr: 0x100002368, symSize: 0x38 }
  - { offsetInCU: 0x6F1D, offset: 0x6F1D, size: 0x8, addend: 0x0, symName: __ZNSt3__19make_pairB8ue170006IiiEENS_4pairINS_18__unwrap_ref_decayIT_E4typeENS2_IT0_E4typeEEEOS3_OS6_, symObjAddr: 0x86C, symBinAddr: 0x1000023A0, symSize: 0x34 }
  - { offsetInCU: 0x6F6C, offset: 0x6F6C, size: 0x8, addend: 0x0, symName: __ZNSt3__1lsB8ue170006INS_11char_traitsIcEEEERNS_13basic_ostreamIcT_EES6_c, symObjAddr: 0x910, symBinAddr: 0x100002444, symSize: 0x34 }
  - { offsetInCU: 0x6FB2, offset: 0x6FB2, size: 0x8, addend: 0x0, symName: __ZNSt3__19make_pairB8ue170006IRiS1_EENS_4pairINS_18__unwrap_ref_decayIT_E4typeENS3_IT0_E4typeEEEOS4_OS7_, symObjAddr: 0x944, symBinAddr: 0x100002478, symSize: 0x34 }
  - { offsetInCU: 0x7001, offset: 0x7001, size: 0x8, addend: 0x0, symName: __ZNSt3__19make_pairB8ue170006IRiiEENS_4pairINS_18__unwrap_ref_decayIT_E4typeENS3_IT0_E4typeEEEOS4_OS7_, symObjAddr: 0x978, symBinAddr: 0x1000024AC, symSize: 0x34 }
  - { offsetInCU: 0x7050, offset: 0x7050, size: 0x8, addend: 0x0, symName: __ZNSt3__1neB8ue170006ERKNS_16__deque_iteratorINS_4pairINS1_IiiEES2_EEPS3_RS3_PS4_lLl256EEES9_, symObjAddr: 0xFB0, symBinAddr: 0x100002AE4, symSize: 0x34 }
  - { offsetInCU: 0x708D, offset: 0x708D, size: 0x8, addend: 0x0, symName: __ZNSt3__1eqB8ue170006ERKNS_16__deque_iteratorINS_4pairINS1_IiiEES2_EEPS3_RS3_PS4_lLl256EEES9_, symObjAddr: 0x12FC, symBinAddr: 0x100002E30, symSize: 0x30 }
  - { offsetInCU: 0x70CA, offset: 0x70CA, size: 0x8, addend: 0x0, symName: __ZNSt3__112__to_addressB8ue170006INS_4pairINS1_IiiEES2_EEEEPT_S5_, symObjAddr: 0x198C, symBinAddr: 0x1000034C0, symSize: 0x14 }
  - { offsetInCU: 0x70FF, offset: 0x70FF, size: 0x8, addend: 0x0, symName: __ZNSt3__130__libcpp_is_constant_evaluatedB8ue170006Ev, symObjAddr: 0x1B28, symBinAddr: 0x10000365C, symSize: 0xC }
  - { offsetInCU: 0x711C, offset: 0x711C, size: 0x8, addend: 0x0, symName: __ZNSt3__119__libcpp_deallocateB8ue170006EPvmm, symObjAddr: 0x1B34, symBinAddr: 0x100003668, symSize: 0x30 }
  - { offsetInCU: 0x7164, offset: 0x7164, size: 0x8, addend: 0x0, symName: __ZNSt3__127__do_deallocate_handle_sizeB8ue170006IJEEEvPvmDpT_, symObjAddr: 0x1B64, symBinAddr: 0x100003698, symSize: 0x28 }
  - { offsetInCU: 0x71A2, offset: 0x71A2, size: 0x8, addend: 0x0, symName: __ZNSt3__124__libcpp_operator_deleteB8ue170006IJPvEEEvDpT_, symObjAddr: 0x1B8C, symBinAddr: 0x1000036C0, symSize: 0x24 }
  - { offsetInCU: 0x71D7, offset: 0x71D7, size: 0x8, addend: 0x0, symName: __ZNSt3__112__to_addressB8ue170006IPNS_4pairINS1_IiiEES2_EEEEPT_S6_, symObjAddr: 0x1E18, symBinAddr: 0x10000394C, symSize: 0x14 }
  - { offsetInCU: 0x7797, offset: 0x7797, size: 0x8, addend: 0x0, symName: __ZNSt3__13maxB8ue170006ImEERKT_S3_S3_, symObjAddr: 0x3218, symBinAddr: 0x100004D4C, symSize: 0x2C }
  - { offsetInCU: 0x7C63, offset: 0x7C63, size: 0x8, addend: 0x0, symName: __ZNSt3__14swapB8ue170006IPPNS_4pairINS1_IiiEES2_EEEEvRT_S7_, symObjAddr: 0x3848, symBinAddr: 0x10000537C, symSize: 0x3C }
  - { offsetInCU: 0x7CB4, offset: 0x7CB4, size: 0x8, addend: 0x0, symName: __ZNSt3__14moveB8ue170006IPPNS_4pairINS1_IiiEES2_EES5_EET0_T_S7_S6_, symObjAddr: 0x392C, symBinAddr: 0x100005460, symSize: 0x40 }
  - { offsetInCU: 0x7D2A, offset: 0x7D2A, size: 0x8, addend: 0x0, symName: __ZNSt3__16__moveB8ue170006INS_17_ClassicAlgPolicyEPPNS_4pairINS2_IiiEES3_EES6_S6_EENS2_IT0_T2_EES7_T1_S8_, symObjAddr: 0x3A34, symBinAddr: 0x100005568, symSize: 0x44 }
  - { offsetInCU: 0x7D96, offset: 0x7D96, size: 0x8, addend: 0x0, symName: __ZNSt3__123__dispatch_copy_or_moveB8ue170006INS_17_ClassicAlgPolicyENS_11__move_loopIS1_EENS_14__move_trivialEPPNS_4pairINS5_IiiEES6_EES9_S9_EENS5_IT2_T4_EESA_T3_SB_, symObjAddr: 0x3A78, symBinAddr: 0x1000055AC, symSize: 0x44 }
  - { offsetInCU: 0x7E14, offset: 0x7E14, size: 0x8, addend: 0x0, symName: __ZNSt3__121__unwrap_and_dispatchB8ue170006INS_10__overloadINS_11__move_loopINS_17_ClassicAlgPolicyEEENS_14__move_trivialEEEPPNS_4pairINS7_IiiEES8_EESB_SB_Li0EEENS7_IT0_T2_EESC_T1_SD_, symObjAddr: 0x3ABC, symBinAddr: 0x1000055F0, symSize: 0xB4 }
  - { offsetInCU: 0x7EA2, offset: 0x7EA2, size: 0x8, addend: 0x0, symName: __ZNSt3__114__unwrap_rangeB8ue170006IPPNS_4pairINS1_IiiEES2_EES5_EENS1_IT0_S6_EET_S8_, symObjAddr: 0x3B70, symBinAddr: 0x1000056A4, symSize: 0x60 }
  - { offsetInCU: 0x7FE1, offset: 0x7FE1, size: 0x8, addend: 0x0, symName: __ZNSt3__113__unwrap_iterB8ue170006IPPNS_4pairINS1_IiiEES2_EENS_18__unwrap_iter_implIS5_Lb1EEELi0EEEDTclsrT0_8__unwrapclsr3stdE7declvalIT_EEEES9_, symObjAddr: 0x3C18, symBinAddr: 0x10000574C, symSize: 0x24 }
  - { offsetInCU: 0x8025, offset: 0x8025, size: 0x8, addend: 0x0, symName: __ZNSt3__19make_pairB8ue170006IPPNS_4pairINS1_IiiEES2_EES5_EENS1_INS_18__unwrap_ref_decayIT_E4typeENS6_IT0_E4typeEEEOS7_OSA_, symObjAddr: 0x3C3C, symBinAddr: 0x100005770, symSize: 0x38 }
  - { offsetInCU: 0x8074, offset: 0x8074, size: 0x8, addend: 0x0, symName: __ZNSt3__114__rewrap_rangeB8ue170006IPPNS_4pairINS1_IiiEES2_EES5_EET_S6_T0_, symObjAddr: 0x3C74, symBinAddr: 0x1000057A8, symSize: 0x2C }
  - { offsetInCU: 0x80C0, offset: 0x80C0, size: 0x8, addend: 0x0, symName: __ZNSt3__113__rewrap_iterB8ue170006IPPNS_4pairINS1_IiiEES2_EES5_NS_18__unwrap_iter_implIS5_Lb1EEEEET_S8_T0_, symObjAddr: 0x3CA0, symBinAddr: 0x1000057D4, symSize: 0x50 }
  - { offsetInCU: 0x8115, offset: 0x8115, size: 0x8, addend: 0x0, symName: __ZNSt3__119__copy_trivial_implB8ue170006IPNS_4pairINS1_IiiEES2_EES4_EENS1_IPT_PT0_EES6_S6_S8_, symObjAddr: 0x3CF0, symBinAddr: 0x100005824, symSize: 0x80 }
  - { offsetInCU: 0x817D, offset: 0x817D, size: 0x8, addend: 0x0, symName: __ZNSt3__119__constexpr_memmoveB8ue170006IPNS_4pairINS1_IiiEES2_EES4_Li0EEEPT_S6_PT0_NS_15__element_countE, symObjAddr: 0x3D70, symBinAddr: 0x1000058A4, symSize: 0xA0 }
  - { offsetInCU: 0x81EB, offset: 0x81EB, size: 0x8, addend: 0x0, symName: __ZNSt3__19make_pairB8ue170006IRPPNS_4pairINS1_IiiEES2_EES5_EENS1_INS_18__unwrap_ref_decayIT_E4typeENS7_IT0_E4typeEEEOS8_OSB_, symObjAddr: 0x3E10, symBinAddr: 0x100005944, symSize: 0x38 }
  - { offsetInCU: 0x828D, offset: 0x828D, size: 0x8, addend: 0x0, symName: __ZNSt3__18distanceB8ue170006INS_13move_iteratorIPPNS_4pairINS2_IiiEES3_EEEEEENS_15iterator_traitsIT_E15difference_typeES9_S9_, symObjAddr: 0x4010, symBinAddr: 0x100005B44, symSize: 0x3C }
  - { offsetInCU: 0x82D0, offset: 0x82D0, size: 0x8, addend: 0x0, symName: __ZNSt3__110__distanceB8ue170006INS_13move_iteratorIPPNS_4pairINS2_IiiEES3_EEEEEENS_15iterator_traitsIT_E15difference_typeES9_S9_NS_26random_access_iterator_tagE, symObjAddr: 0x4214, symBinAddr: 0x100005D48, symSize: 0x30 }
  - { offsetInCU: 0x831D, offset: 0x831D, size: 0x8, addend: 0x0, symName: __ZNSt3__1miB8ue170006IPPNS_4pairINS1_IiiEES2_EES5_EENS_13move_iteratorIT_E15difference_typeERKS8_RKNS6_IT0_EE, symObjAddr: 0x4244, symBinAddr: 0x100005D78, symSize: 0x48 }
  - { offsetInCU: 0x836C, offset: 0x836C, size: 0x8, addend: 0x0, symName: __ZNSt3__117__libcpp_allocateB8ue170006Emm, symObjAddr: 0x43C8, symBinAddr: 0x100005EFC, symSize: 0x28 }
  - { offsetInCU: 0x83A9, offset: 0x83A9, size: 0x8, addend: 0x0, symName: __ZNSt3__121__libcpp_operator_newB8ue170006IJmEEEPvDpT_, symObjAddr: 0x4404, symBinAddr: 0x100005F38, symSize: 0x24 }
  - { offsetInCU: 0x83E2, offset: 0x83E2, size: 0x8, addend: 0x0, symName: __ZNSt3__113move_backwardB8ue170006IPPNS_4pairINS1_IiiEES2_EES5_EET0_T_S7_S6_, symObjAddr: 0x4428, symBinAddr: 0x100005F5C, symSize: 0x40 }
  - { offsetInCU: 0x843C, offset: 0x843C, size: 0x8, addend: 0x0, symName: __ZNSt3__115__move_backwardB8ue170006INS_17_ClassicAlgPolicyEPPNS_4pairINS2_IiiEES3_EES6_S6_EENS2_IT0_T2_EES7_T1_S8_, symObjAddr: 0x4468, symBinAddr: 0x100005F9C, symSize: 0x44 }
  - { offsetInCU: 0x84A8, offset: 0x84A8, size: 0x8, addend: 0x0, symName: __ZNSt3__123__dispatch_copy_or_moveB8ue170006INS_17_ClassicAlgPolicyENS_20__move_backward_loopIS1_EENS_23__move_backward_trivialEPPNS_4pairINS5_IiiEES6_EES9_S9_EENS5_IT2_T4_EESA_T3_SB_, symObjAddr: 0x44AC, symBinAddr: 0x100005FE0, symSize: 0x44 }
  - { offsetInCU: 0x8526, offset: 0x8526, size: 0x8, addend: 0x0, symName: __ZNSt3__121__unwrap_and_dispatchB8ue170006INS_10__overloadINS_20__move_backward_loopINS_17_ClassicAlgPolicyEEENS_23__move_backward_trivialEEEPPNS_4pairINS7_IiiEES8_EESB_SB_Li0EEENS7_IT0_T2_EESC_T1_SD_, symObjAddr: 0x44F0, symBinAddr: 0x100006024, symSize: 0xB4 }
  - { offsetInCU: 0x85FA, offset: 0x85FA, size: 0x8, addend: 0x0, symName: __ZNSt3__128__copy_backward_trivial_implB8ue170006IPNS_4pairINS1_IiiEES2_EES4_EENS1_IPT_PT0_EES6_S6_S8_, symObjAddr: 0x45EC, symBinAddr: 0x100006120, symSize: 0x90 }
  - { offsetInCU: 0x8662, offset: 0x8662, size: 0x8, addend: 0x0, symName: __ZNSt3__19make_pairB8ue170006IRPPNS_4pairINS1_IiiEES2_EES6_EENS1_INS_18__unwrap_ref_decayIT_E4typeENS7_IT0_E4typeEEEOS8_OSB_, symObjAddr: 0x467C, symBinAddr: 0x1000061B0, symSize: 0x38 }
  - { offsetInCU: 0x86B1, offset: 0x86B1, size: 0x8, addend: 0x0, symName: __ZNSt3__13maxB8ue170006ImNS_6__lessIvvEEEERKT_S5_S5_T0_, symObjAddr: 0x46B4, symBinAddr: 0x1000061E8, symSize: 0x54 }
  - { offsetInCU: 0x8750, offset: 0x8750, size: 0x8, addend: 0x0, symName: __ZNSt3__119__allocate_at_leastB8ue170006INS_9allocatorIPNS_4pairINS2_IiiEES3_EEEEEENS_19__allocation_resultINS_16allocator_traitsIT_E7pointerEEERS9_m, symObjAddr: 0x484C, symBinAddr: 0x100006380, symSize: 0x40 }
  - { offsetInCU: 0x8793, offset: 0x8793, size: 0x8, addend: 0x0, symName: __ZNSt3__116__pad_and_outputB8ue170006IcNS_11char_traitsIcEEEENS_19ostreambuf_iteratorIT_T0_EES6_PKS4_S8_S8_RNS_8ios_baseES4_, symObjAddr: 0x54A0, symBinAddr: 0x100006FD4, symSize: 0x248 }
  - { offsetInCU: 0x8862, offset: 0x8862, size: 0x8, addend: 0x0, symName: __ZNSt3__112__to_addressB8ue170006IKcEEPT_S3_, symObjAddr: 0x59E4, symBinAddr: 0x100007518, symSize: 0x14 }
  - { offsetInCU: 0x88CA, offset: 0x88CA, size: 0x8, addend: 0x0, symName: __ZNSt3__19use_facetB8ue170006INS_5ctypeIcEEEERKT_RKNS_6localeE, symObjAddr: 0x5C50, symBinAddr: 0x100007784, symSize: 0x2C }
  - { offsetInCU: 0x8EA8, offset: 0x8EA8, size: 0x8, addend: 0x0, symName: __ZSt28__throw_bad_array_new_lengthB8ue170006v, symObjAddr: 0x4394, symBinAddr: 0x100005EC8, symSize: 0x34 }
  - { offsetInCU: 0xB780, offset: 0xB780, size: 0x8, addend: 0x0, symName: _main, symObjAddr: 0x0, symBinAddr: 0x100001B34, symSize: 0x620 }
  - { offsetInCU: 0xB88C, offset: 0xB88C, size: 0x8, addend: 0x0, symName: __ZNSt3__19basic_iosIcNS_11char_traitsIcEEE3tieB8ue170006EPNS_13basic_ostreamIcS2_EE, symObjAddr: 0x620, symBinAddr: 0x100002154, symSize: 0x2C }
  - { offsetInCU: 0xB8FF, offset: 0xB8FF, size: 0x8, addend: 0x0, symName: __ZNSt3__15queueINS_4pairINS1_IiiEES2_EENS_5dequeIS3_NS_9allocatorIS3_EEEEEC1B8ue170006Ev, symObjAddr: 0x7DC, symBinAddr: 0x100002310, symSize: 0x2C }
  - { offsetInCU: 0xB929, offset: 0xB929, size: 0x8, addend: 0x0, symName: __ZNSt3__15queueINS_4pairINS1_IiiEES2_EENS_5dequeIS3_NS_9allocatorIS3_EEEEE4pushB8ue170006ERKS3_, symObjAddr: 0x808, symBinAddr: 0x10000233C, symSize: 0x2C }
  - { offsetInCU: 0xB95E, offset: 0xB95E, size: 0x8, addend: 0x0, symName: __ZNKSt3__15queueINS_4pairINS1_IiiEES2_EENS_5dequeIS3_NS_9allocatorIS3_EEEEE5emptyB8ue170006Ev, symObjAddr: 0x8A0, symBinAddr: 0x1000023D4, symSize: 0x28 }
  - { offsetInCU: 0xB984, offset: 0xB984, size: 0x8, addend: 0x0, symName: __ZNSt3__15queueINS_4pairINS1_IiiEES2_EENS_5dequeIS3_NS_9allocatorIS3_EEEEE5frontB8ue170006Ev, symObjAddr: 0x8C8, symBinAddr: 0x1000023FC, symSize: 0x24 }
  - { offsetInCU: 0xB9AA, offset: 0xB9AA, size: 0x8, addend: 0x0, symName: __ZNSt3__15queueINS_4pairINS1_IiiEES2_EENS_5dequeIS3_NS_9allocatorIS3_EEEEE3popB8ue170006Ev, symObjAddr: 0x8EC, symBinAddr: 0x100002420, symSize: 0x24 }
  - { offsetInCU: 0xB9D0, offset: 0xB9D0, size: 0x8, addend: 0x0, symName: __ZNSt3__15queueINS_4pairINS1_IiiEES2_EENS_5dequeIS3_NS_9allocatorIS3_EEEEED1Ev, symObjAddr: 0x9AC, symBinAddr: 0x1000024E0, symSize: 0x2C }
  - { offsetInCU: 0xB9FD, offset: 0xB9FD, size: 0x8, addend: 0x0, symName: __ZNSt3__15queueINS_4pairINS1_IiiEES2_EENS_5dequeIS3_NS_9allocatorIS3_EEEEED2Ev, symObjAddr: 0x9E4, symBinAddr: 0x100002518, symSize: 0x2C }
  - { offsetInCU: 0xBA2A, offset: 0xBA2A, size: 0x8, addend: 0x0, symName: __ZNSt3__15dequeINS_4pairINS1_IiiEES2_EENS_9allocatorIS3_EEED1B8ue170006Ev, symObjAddr: 0xA10, symBinAddr: 0x100002544, symSize: 0x2C }
  - { offsetInCU: 0xBA54, offset: 0xBA54, size: 0x8, addend: 0x0, symName: __ZNSt3__15dequeINS_4pairINS1_IiiEES2_EENS_9allocatorIS3_EEED2B8ue170006Ev, symObjAddr: 0xA3C, symBinAddr: 0x100002570, symSize: 0xA4 }
  - { offsetInCU: 0xBAAB, offset: 0xBAAB, size: 0x8, addend: 0x0, symName: __ZNSt3__15dequeINS_4pairINS1_IiiEES2_EENS_9allocatorIS3_EEE5clearEv, symObjAddr: 0xAE0, symBinAddr: 0x100002614, symSize: 0x1A8 }
  - { offsetInCU: 0xBB0F, offset: 0xBB0F, size: 0x8, addend: 0x0, symName: __ZNKSt3__15dequeINS_4pairINS1_IiiEES2_EENS_9allocatorIS3_EEE17__annotate_deleteB8ue170006Ev, symObjAddr: 0xC88, symBinAddr: 0x1000027BC, symSize: 0xE8 }
  - { offsetInCU: 0xBB53, offset: 0xBB53, size: 0x8, addend: 0x0, symName: __ZNSt3__114__split_bufferIPNS_4pairINS1_IiiEES2_EENS_9allocatorIS4_EEE5beginB8ue170006Ev, symObjAddr: 0xD70, symBinAddr: 0x1000028A4, symSize: 0x18 }
  - { offsetInCU: 0xBB79, offset: 0xBB79, size: 0x8, addend: 0x0, symName: __ZNSt3__114__split_bufferIPNS_4pairINS1_IiiEES2_EENS_9allocatorIS4_EEE3endB8ue170006Ev, symObjAddr: 0xD88, symBinAddr: 0x1000028BC, symSize: 0x18 }
  - { offsetInCU: 0xBB9F, offset: 0xBB9F, size: 0x8, addend: 0x0, symName: __ZNSt3__116allocator_traitsINS_9allocatorINS_4pairINS2_IiiEES3_EEEEE10deallocateB8ue170006ERS5_PS4_m, symObjAddr: 0xDA0, symBinAddr: 0x1000028D4, symSize: 0x34 }
  - { offsetInCU: 0xBBE1, offset: 0xBBE1, size: 0x8, addend: 0x0, symName: __ZNSt3__15dequeINS_4pairINS1_IiiEES2_EENS_9allocatorIS3_EEE7__allocB8ue170006Ev, symObjAddr: 0xDD4, symBinAddr: 0x100002908, symSize: 0x28 }
  - { offsetInCU: 0xBC07, offset: 0xBC07, size: 0x8, addend: 0x0, symName: __ZNSt3__114__split_bufferIPNS_4pairINS1_IiiEES2_EENS_9allocatorIS4_EEED1Ev, symObjAddr: 0xDFC, symBinAddr: 0x100002930, symSize: 0x2C }
  - { offsetInCU: 0xBC33, offset: 0xBC33, size: 0x8, addend: 0x0, symName: __ZNSt3__15dequeINS_4pairINS1_IiiEES2_EENS_9allocatorIS3_EEE5beginB8ue170006Ev, symObjAddr: 0xE28, symBinAddr: 0x10000295C, symSize: 0xCC }
  - { offsetInCU: 0xBC68, offset: 0xBC68, size: 0x8, addend: 0x0, symName: __ZNSt3__15dequeINS_4pairINS1_IiiEES2_EENS_9allocatorIS3_EEE3endB8ue170006Ev, symObjAddr: 0xEF4, symBinAddr: 0x100002A28, symSize: 0xBC }
  - { offsetInCU: 0xBCAC, offset: 0xBCAC, size: 0x8, addend: 0x0, symName: __ZNSt3__116allocator_traitsINS_9allocatorINS_4pairINS2_IiiEES3_EEEEE7destroyB8ue170006IS4_vEEvRS5_PT_, symObjAddr: 0xFE4, symBinAddr: 0x100002B18, symSize: 0x2C }
  - { offsetInCU: 0xBCE9, offset: 0xBCE9, size: 0x8, addend: 0x0, symName: __ZNKSt3__116__deque_iteratorINS_4pairINS1_IiiEES2_EEPS3_RS3_PS4_lLl256EEdeB8ue170006Ev, symObjAddr: 0x1010, symBinAddr: 0x100002B44, symSize: 0x18 }
  - { offsetInCU: 0xBD0F, offset: 0xBD0F, size: 0x8, addend: 0x0, symName: __ZNSt3__116__deque_iteratorINS_4pairINS1_IiiEES2_EEPS3_RS3_PS4_lLl256EEppB8ue170006Ev, symObjAddr: 0x1028, symBinAddr: 0x100002B5C, symSize: 0x70 }
  - { offsetInCU: 0xBD35, offset: 0xBD35, size: 0x8, addend: 0x0, symName: __ZNSt3__15dequeINS_4pairINS1_IiiEES2_EENS_9allocatorIS3_EEE6__sizeB8ue170006Ev, symObjAddr: 0x1098, symBinAddr: 0x100002BCC, symSize: 0x28 }
  - { offsetInCU: 0xBD5B, offset: 0xBD5B, size: 0x8, addend: 0x0, symName: __ZNKSt3__114__split_bufferIPNS_4pairINS1_IiiEES2_EENS_9allocatorIS4_EEE4sizeB8ue170006Ev, symObjAddr: 0x10C0, symBinAddr: 0x100002BF4, symSize: 0x28 }
  - { offsetInCU: 0xBD81, offset: 0xBD81, size: 0x8, addend: 0x0, symName: __ZNSt3__114__split_bufferIPNS_4pairINS1_IiiEES2_EENS_9allocatorIS4_EEE5frontB8ue170006Ev, symObjAddr: 0x10E8, symBinAddr: 0x100002C1C, symSize: 0x18 }
  - { offsetInCU: 0xBDA7, offset: 0xBDA7, size: 0x8, addend: 0x0, symName: __ZNSt3__114__split_bufferIPNS_4pairINS1_IiiEES2_EENS_9allocatorIS4_EEE9pop_frontB8ue170006Ev, symObjAddr: 0x1100, symBinAddr: 0x100002C34, symSize: 0x2C }
  - { offsetInCU: 0xBDCD, offset: 0xBDCD, size: 0x8, addend: 0x0, symName: __ZNKSt3__15dequeINS_4pairINS1_IiiEES2_EENS_9allocatorIS3_EEE14__annotate_newB8ue170006Em, symObjAddr: 0x112C, symBinAddr: 0x100002C60, symSize: 0xB8 }
  - { offsetInCU: 0xBE02, offset: 0xBE02, size: 0x8, addend: 0x0, symName: __ZNKSt3__114__split_bufferIPNS_4pairINS1_IiiEES2_EENS_9allocatorIS4_EEE5emptyB8ue170006Ev, symObjAddr: 0x11E4, symBinAddr: 0x100002D18, symSize: 0x28 }
  - { offsetInCU: 0xBE28, offset: 0xBE28, size: 0x8, addend: 0x0, symName: __ZNSt3__116__deque_iteratorINS_4pairINS1_IiiEES2_EEPS3_RS3_PS4_lLl256EEC1B8ue170006ES6_S4_, symObjAddr: 0x120C, symBinAddr: 0x100002D40, symSize: 0x3C }
  - { offsetInCU: 0xBE70, offset: 0xBE70, size: 0x8, addend: 0x0, symName: __ZNSt3__116__deque_iteratorINS_4pairINS1_IiiEES2_EEPS3_RS3_PS4_lLl256EEC2B8ue170006ES6_S4_, symObjAddr: 0x1248, symBinAddr: 0x100002D7C, symSize: 0x2C }
  - { offsetInCU: 0xBEB8, offset: 0xBEB8, size: 0x8, addend: 0x0, symName: __ZNKSt3__15dequeINS_4pairINS1_IiiEES2_EENS_9allocatorIS3_EEE4sizeB8ue170006Ev, symObjAddr: 0x1274, symBinAddr: 0x100002DA8, symSize: 0x28 }
  - { offsetInCU: 0xBEDE, offset: 0xBEDE, size: 0x8, addend: 0x0, symName: __ZNKSt3__15dequeINS_4pairINS1_IiiEES2_EENS_9allocatorIS3_EEE6__sizeB8ue170006Ev, symObjAddr: 0x129C, symBinAddr: 0x100002DD0, symSize: 0x28 }
  - { offsetInCU: 0xBF04, offset: 0xBF04, size: 0x8, addend: 0x0, symName: __ZNKSt3__117__compressed_pairImNS_9allocatorINS_4pairINS2_IiiEES3_EEEEE5firstB8ue170006Ev, symObjAddr: 0x12C4, symBinAddr: 0x100002DF8, symSize: 0x24 }
  - { offsetInCU: 0xBF2A, offset: 0xBF2A, size: 0x8, addend: 0x0, symName: __ZNKSt3__122__compressed_pair_elemImLi0ELb0EE5__getB8ue170006Ev, symObjAddr: 0x12E8, symBinAddr: 0x100002E1C, symSize: 0x14 }
  - { offsetInCU: 0xBF50, offset: 0xBF50, size: 0x8, addend: 0x0, symName: __ZNSt3__19allocatorINS_4pairINS1_IiiEES2_EEE7destroyB8ue170006EPS3_, symObjAddr: 0x132C, symBinAddr: 0x100002E60, symSize: 0x14 }
  - { offsetInCU: 0xBF84, offset: 0xBF84, size: 0x8, addend: 0x0, symName: __ZNSt3__117__compressed_pairImNS_9allocatorINS_4pairINS2_IiiEES3_EEEEE5firstB8ue170006Ev, symObjAddr: 0x1340, symBinAddr: 0x100002E74, symSize: 0x24 }
  - { offsetInCU: 0xBFAA, offset: 0xBFAA, size: 0x8, addend: 0x0, symName: __ZNSt3__122__compressed_pair_elemImLi0ELb0EE5__getB8ue170006Ev, symObjAddr: 0x1364, symBinAddr: 0x100002E98, symSize: 0x14 }
  - { offsetInCU: 0xBFD0, offset: 0xBFD0, size: 0x8, addend: 0x0, symName: __ZNSt3__114__split_bufferIPNS_4pairINS1_IiiEES2_EENS_9allocatorIS4_EEE19__destruct_at_beginB8ue170006EPS4_, symObjAddr: 0x1378, symBinAddr: 0x100002EAC, symSize: 0x2C }
  - { offsetInCU: 0xC004, offset: 0xC004, size: 0x8, addend: 0x0, symName: __ZNSt3__114__split_bufferIPNS_4pairINS1_IiiEES2_EENS_9allocatorIS4_EEE19__destruct_at_beginEPS4_NS_17integral_constantIbLb1EEE, symObjAddr: 0x13A4, symBinAddr: 0x100002ED8, symSize: 0x20 }
  - { offsetInCU: 0xC044, offset: 0xC044, size: 0x8, addend: 0x0, symName: __ZNKSt3__15dequeINS_4pairINS1_IiiEES2_EENS_9allocatorIS3_EEE18__annotate_from_toB8ue170006EmmNS6_22__asan_annotation_typeENS6_23__asan_annotation_placeE, symObjAddr: 0x13C4, symBinAddr: 0x100002EF8, symSize: 0x580 }
  - { offsetInCU: 0xC202, offset: 0xC202, size: 0x8, addend: 0x0, symName: __ZNKSt3__114__split_bufferIPNS_4pairINS1_IiiEES2_EENS_9allocatorIS4_EEE5beginB8ue170006Ev, symObjAddr: 0x1944, symBinAddr: 0x100003478, symSize: 0x18 }
  - { offsetInCU: 0xC228, offset: 0xC228, size: 0x8, addend: 0x0, symName: __ZNKSt3__15dequeINS_4pairINS1_IiiEES2_EENS_9allocatorIS3_EEE5emptyB8ue170006Ev, symObjAddr: 0x195C, symBinAddr: 0x100003490, symSize: 0x30 }
  - { offsetInCU: 0xC24E, offset: 0xC24E, size: 0x8, addend: 0x0, symName: __ZNKSt3__15dequeINS_4pairINS1_IiiEES2_EENS_9allocatorIS3_EEE44__annotate_double_ended_contiguous_containerB8ue170006EPKvS8_S8_S8_S8_S8_, symObjAddr: 0x19A0, symBinAddr: 0x1000034D4, symSize: 0x28 }
  - { offsetInCU: 0xC2BC, offset: 0xC2BC, size: 0x8, addend: 0x0, symName: __ZNKSt3__15dequeINS_4pairINS1_IiiEES2_EENS_9allocatorIS3_EEE22__annotate_whole_blockB8ue170006EmNS6_22__asan_annotation_typeE, symObjAddr: 0x19C8, symBinAddr: 0x1000034FC, symSize: 0xAC }
  - { offsetInCU: 0xC32D, offset: 0xC32D, size: 0x8, addend: 0x0, symName: __ZNKSt3__15dequeINS_4pairINS1_IiiEES2_EENS_9allocatorIS3_EEE23__annotate_poison_blockB8ue170006EPKvS8_, symObjAddr: 0x1A74, symBinAddr: 0x1000035A8, symSize: 0x44 }
  - { offsetInCU: 0xC371, offset: 0xC371, size: 0x8, addend: 0x0, symName: __ZNSt3__19allocatorINS_4pairINS1_IiiEES2_EEE10deallocateB8ue170006EPS3_m, symObjAddr: 0x1AB8, symBinAddr: 0x1000035EC, symSize: 0x70 }
  - { offsetInCU: 0xC3B3, offset: 0xC3B3, size: 0x8, addend: 0x0, symName: __ZNSt3__117__compressed_pairImNS_9allocatorINS_4pairINS2_IiiEES3_EEEEE6secondB8ue170006Ev, symObjAddr: 0x1BB0, symBinAddr: 0x1000036E4, symSize: 0x24 }
  - { offsetInCU: 0xC3D9, offset: 0xC3D9, size: 0x8, addend: 0x0, symName: __ZNSt3__122__compressed_pair_elemINS_9allocatorINS_4pairINS2_IiiEES3_EEEELi1ELb1EE5__getB8ue170006Ev, symObjAddr: 0x1BD4, symBinAddr: 0x100003708, symSize: 0x14 }
  - { offsetInCU: 0xC3FF, offset: 0xC3FF, size: 0x8, addend: 0x0, symName: __ZNSt3__114__split_bufferIPNS_4pairINS1_IiiEES2_EENS_9allocatorIS4_EEED2Ev, symObjAddr: 0x1BE8, symBinAddr: 0x10000371C, symSize: 0x80 }
  - { offsetInCU: 0xC42B, offset: 0xC42B, size: 0x8, addend: 0x0, symName: __ZNSt3__114__split_bufferIPNS_4pairINS1_IiiEES2_EENS_9allocatorIS4_EEE5clearB8ue170006Ev, symObjAddr: 0x1C68, symBinAddr: 0x10000379C, symSize: 0x28 }
  - { offsetInCU: 0xC451, offset: 0xC451, size: 0x8, addend: 0x0, symName: __ZNSt3__116allocator_traitsINS_9allocatorIPNS_4pairINS2_IiiEES3_EEEEE10deallocateB8ue170006ERS6_PS5_m, symObjAddr: 0x1C90, symBinAddr: 0x1000037C4, symSize: 0x34 }
  - { offsetInCU: 0xC493, offset: 0xC493, size: 0x8, addend: 0x0, symName: __ZNSt3__114__split_bufferIPNS_4pairINS1_IiiEES2_EENS_9allocatorIS4_EEE7__allocB8ue170006Ev, symObjAddr: 0x1CC4, symBinAddr: 0x1000037F8, symSize: 0x28 }
  - { offsetInCU: 0xC4B9, offset: 0xC4B9, size: 0x8, addend: 0x0, symName: __ZNKSt3__114__split_bufferIPNS_4pairINS1_IiiEES2_EENS_9allocatorIS4_EEE8capacityB8ue170006Ev, symObjAddr: 0x1CEC, symBinAddr: 0x100003820, symSize: 0x40 }
  - { offsetInCU: 0xC4DF, offset: 0xC4DF, size: 0x8, addend: 0x0, symName: __ZNSt3__114__split_bufferIPNS_4pairINS1_IiiEES2_EENS_9allocatorIS4_EEE17__destruct_at_endB8ue170006EPS4_, symObjAddr: 0x1D2C, symBinAddr: 0x100003860, symSize: 0x2C }
  - { offsetInCU: 0xC513, offset: 0xC513, size: 0x8, addend: 0x0, symName: __ZNSt3__114__split_bufferIPNS_4pairINS1_IiiEES2_EENS_9allocatorIS4_EEE17__destruct_at_endB8ue170006EPS4_NS_17integral_constantIbLb0EEE, symObjAddr: 0x1D58, symBinAddr: 0x10000388C, symSize: 0x94 }
  - { offsetInCU: 0xC553, offset: 0xC553, size: 0x8, addend: 0x0, symName: __ZNSt3__116allocator_traitsINS_9allocatorIPNS_4pairINS2_IiiEES3_EEEEE7destroyB8ue170006IS5_vEEvRS6_PT_, symObjAddr: 0x1DEC, symBinAddr: 0x100003920, symSize: 0x2C }
  - { offsetInCU: 0xC590, offset: 0xC590, size: 0x8, addend: 0x0, symName: __ZNSt3__19allocatorIPNS_4pairINS1_IiiEES2_EEE7destroyB8ue170006EPS4_, symObjAddr: 0x1E2C, symBinAddr: 0x100003960, symSize: 0x14 }
  - { offsetInCU: 0xC5C4, offset: 0xC5C4, size: 0x8, addend: 0x0, symName: __ZNSt3__19allocatorIPNS_4pairINS1_IiiEES2_EEE10deallocateB8ue170006EPS4_m, symObjAddr: 0x1E40, symBinAddr: 0x100003974, symSize: 0x70 }
  - { offsetInCU: 0xC606, offset: 0xC606, size: 0x8, addend: 0x0, symName: __ZNSt3__117__compressed_pairIPPNS_4pairINS1_IiiEES2_EENS_9allocatorIS4_EEE6secondB8ue170006Ev, symObjAddr: 0x1EB0, symBinAddr: 0x1000039E4, symSize: 0x24 }
  - { offsetInCU: 0xC62C, offset: 0xC62C, size: 0x8, addend: 0x0, symName: __ZNSt3__122__compressed_pair_elemINS_9allocatorIPNS_4pairINS2_IiiEES3_EEEELi1ELb1EE5__getB8ue170006Ev, symObjAddr: 0x1ED4, symBinAddr: 0x100003A08, symSize: 0x14 }
  - { offsetInCU: 0xC652, offset: 0xC652, size: 0x8, addend: 0x0, symName: __ZNKSt3__114__split_bufferIPNS_4pairINS1_IiiEES2_EENS_9allocatorIS4_EEE9__end_capB8ue170006Ev, symObjAddr: 0x1EE8, symBinAddr: 0x100003A1C, symSize: 0x28 }
  - { offsetInCU: 0xC678, offset: 0xC678, size: 0x8, addend: 0x0, symName: __ZNKSt3__117__compressed_pairIPPNS_4pairINS1_IiiEES2_EENS_9allocatorIS4_EEE5firstB8ue170006Ev, symObjAddr: 0x1F10, symBinAddr: 0x100003A44, symSize: 0x24 }
  - { offsetInCU: 0xC69E, offset: 0xC69E, size: 0x8, addend: 0x0, symName: __ZNKSt3__122__compressed_pair_elemIPPNS_4pairINS1_IiiEES2_EELi0ELb0EE5__getB8ue170006Ev, symObjAddr: 0x1F34, symBinAddr: 0x100003A68, symSize: 0x14 }
  - { offsetInCU: 0xC766, offset: 0xC766, size: 0x8, addend: 0x0, symName: __ZNKSt3__113basic_istreamIcNS_11char_traitsIcEEE6sentrycvbB8ue170006Ev, symObjAddr: 0x1F48, symBinAddr: 0x100003A7C, symSize: 0x1C }
  - { offsetInCU: 0xC78C, offset: 0xC78C, size: 0x8, addend: 0x0, symName: __ZNKSt3__19basic_iosIcNS_11char_traitsIcEEE5rdbufB8ue170006Ev, symObjAddr: 0x1F64, symBinAddr: 0x100003A98, symSize: 0x24 }
  - { offsetInCU: 0xC7B4, offset: 0xC7B4, size: 0x8, addend: 0x0, symName: __ZNSt3__115basic_streambufIcNS_11char_traitsIcEEE6sbumpcB8ue170006Ev, symObjAddr: 0x1F88, symBinAddr: 0x100003ABC, symSize: 0x78 }
  - { offsetInCU: 0xC7DA, offset: 0xC7DA, size: 0x8, addend: 0x0, symName: __ZNSt3__111char_traitsIcE11eq_int_typeB8ue170006Eii, symObjAddr: 0x2000, symBinAddr: 0x100003B34, symSize: 0x28 }
  - { offsetInCU: 0xC80D, offset: 0xC80D, size: 0x8, addend: 0x0, symName: __ZNSt3__111char_traitsIcE3eofB8ue170006Ev, symObjAddr: 0x2028, symBinAddr: 0x100003B5C, symSize: 0x8 }
  - { offsetInCU: 0xC821, offset: 0xC821, size: 0x8, addend: 0x0, symName: __ZNSt3__111char_traitsIcE12to_char_typeB8ue170006Ei, symObjAddr: 0x2030, symBinAddr: 0x100003B64, symSize: 0x18 }
  - { offsetInCU: 0xC844, offset: 0xC844, size: 0x8, addend: 0x0, symName: __ZNSt3__18ios_base18__setstate_nothrowB8ue170006Ej, symObjAddr: 0x2048, symBinAddr: 0x100003B7C, symSize: 0x64 }
  - { offsetInCU: 0xC879, offset: 0xC879, size: 0x8, addend: 0x0, symName: __ZNKSt3__19basic_iosIcNS_11char_traitsIcEEE10exceptionsB8ue170006Ev, symObjAddr: 0x20AC, symBinAddr: 0x100003BE0, symSize: 0x24 }
  - { offsetInCU: 0xC89F, offset: 0xC89F, size: 0x8, addend: 0x0, symName: __ZNSt3__19basic_iosIcNS_11char_traitsIcEEE8setstateB8ue170006Ej, symObjAddr: 0x20D0, symBinAddr: 0x100003C04, symSize: 0x2C }
  - { offsetInCU: 0xC8D4, offset: 0xC8D4, size: 0x8, addend: 0x0, symName: __ZNKSt3__18ios_base5rdbufB8ue170006Ev, symObjAddr: 0x20FC, symBinAddr: 0x100003C30, symSize: 0x18 }
  - { offsetInCU: 0xC8FA, offset: 0xC8FA, size: 0x8, addend: 0x0, symName: __ZNSt3__111char_traitsIcE11to_int_typeB8ue170006Ec, symObjAddr: 0x2114, symBinAddr: 0x100003C48, symSize: 0x14 }
  - { offsetInCU: 0xC91E, offset: 0xC91E, size: 0x8, addend: 0x0, symName: __ZNKSt3__18ios_base10exceptionsB8ue170006Ev, symObjAddr: 0x2128, symBinAddr: 0x100003C5C, symSize: 0x18 }
  - { offsetInCU: 0xC946, offset: 0xC946, size: 0x8, addend: 0x0, symName: __ZNSt3__18ios_base8setstateB8ue170006Ej, symObjAddr: 0x2140, symBinAddr: 0x100003C74, symSize: 0x34 }
  - { offsetInCU: 0xC97D, offset: 0xC97D, size: 0x8, addend: 0x0, symName: __ZNSt3__15queueINS_4pairINS1_IiiEES2_EENS_5dequeIS3_NS_9allocatorIS3_EEEEEC2B8ue170006Ev, symObjAddr: 0x2174, symBinAddr: 0x100003CA8, symSize: 0x2C }
  - { offsetInCU: 0xC9A7, offset: 0xC9A7, size: 0x8, addend: 0x0, symName: __ZNSt3__15dequeINS_4pairINS1_IiiEES2_EENS_9allocatorIS3_EEEC1B8ue170006Ev, symObjAddr: 0x21A0, symBinAddr: 0x100003CD4, symSize: 0x2C }
  - { offsetInCU: 0xC9D1, offset: 0xC9D1, size: 0x8, addend: 0x0, symName: __ZNSt3__15dequeINS_4pairINS1_IiiEES2_EENS_9allocatorIS3_EEEC2B8ue170006Ev, symObjAddr: 0x21CC, symBinAddr: 0x100003D00, symSize: 0x84 }
  - { offsetInCU: 0xC9FB, offset: 0xC9FB, size: 0x8, addend: 0x0, symName: __ZNSt3__114__split_bufferIPNS_4pairINS1_IiiEES2_EENS_9allocatorIS4_EEEC1B8ue170006Ev, symObjAddr: 0x2250, symBinAddr: 0x100003D84, symSize: 0x2C }
  - { offsetInCU: 0xCA2F, offset: 0xCA2F, size: 0x8, addend: 0x0, symName: __ZNSt3__117__compressed_pairImNS_9allocatorINS_4pairINS2_IiiEES3_EEEEEC1B8ue170006IiNS_18__default_init_tagEEEOT_OT0_, symObjAddr: 0x227C, symBinAddr: 0x100003DB0, symSize: 0x3C }
  - { offsetInCU: 0xCA87, offset: 0xCA87, size: 0x8, addend: 0x0, symName: __ZNSt3__114__split_bufferIPNS_4pairINS1_IiiEES2_EENS_9allocatorIS4_EEEC2B8ue170006Ev, symObjAddr: 0x22B8, symBinAddr: 0x100003DEC, symSize: 0x48 }
  - { offsetInCU: 0xCAB6, offset: 0xCAB6, size: 0x8, addend: 0x0, symName: __ZNSt3__117__compressed_pairIPPNS_4pairINS1_IiiEES2_EENS_9allocatorIS4_EEEC1B8ue170006IDnNS_18__default_init_tagEEEOT_OT0_, symObjAddr: 0x2300, symBinAddr: 0x100003E34, symSize: 0x3C }
  - { offsetInCU: 0xCB0E, offset: 0xCB0E, size: 0x8, addend: 0x0, symName: __ZNSt3__117__compressed_pairIPPNS_4pairINS1_IiiEES2_EENS_9allocatorIS4_EEEC2B8ue170006IDnNS_18__default_init_tagEEEOT_OT0_, symObjAddr: 0x233C, symBinAddr: 0x100003E70, symSize: 0x40 }
  - { offsetInCU: 0xCB66, offset: 0xCB66, size: 0x8, addend: 0x0, symName: __ZNSt3__122__compressed_pair_elemIPPNS_4pairINS1_IiiEES2_EELi0ELb0EEC2B8ue170006IDnvEEOT_, symObjAddr: 0x237C, symBinAddr: 0x100003EB0, symSize: 0x1C }
  - { offsetInCU: 0xCBA8, offset: 0xCBA8, size: 0x8, addend: 0x0, symName: __ZNSt3__122__compressed_pair_elemINS_9allocatorIPNS_4pairINS2_IiiEES3_EEEELi1ELb1EEC2B8ue170006ENS_18__default_init_tagE, symObjAddr: 0x2398, symBinAddr: 0x100003ECC, symSize: 0x2C }
  - { offsetInCU: 0xCBDC, offset: 0xCBDC, size: 0x8, addend: 0x0, symName: __ZNSt3__19allocatorIPNS_4pairINS1_IiiEES2_EEEC2B8ue170006Ev, symObjAddr: 0x23C4, symBinAddr: 0x100003EF8, symSize: 0x2C }
  - { offsetInCU: 0xCC06, offset: 0xCC06, size: 0x8, addend: 0x0, symName: __ZNSt3__116__non_trivial_ifILb1ENS_9allocatorIPNS_4pairINS2_IiiEES3_EEEEEC2B8ue170006Ev, symObjAddr: 0x23F0, symBinAddr: 0x100003F24, symSize: 0x14 }
  - { offsetInCU: 0xCC30, offset: 0xCC30, size: 0x8, addend: 0x0, symName: __ZNSt3__117__compressed_pairImNS_9allocatorINS_4pairINS2_IiiEES3_EEEEEC2B8ue170006IiNS_18__default_init_tagEEEOT_OT0_, symObjAddr: 0x2404, symBinAddr: 0x100003F38, symSize: 0x40 }
  - { offsetInCU: 0xCC88, offset: 0xCC88, size: 0x8, addend: 0x0, symName: __ZNSt3__122__compressed_pair_elemImLi0ELb0EEC2B8ue170006IivEEOT_, symObjAddr: 0x2444, symBinAddr: 0x100003F78, symSize: 0x24 }
  - { offsetInCU: 0xCCCA, offset: 0xCCCA, size: 0x8, addend: 0x0, symName: __ZNSt3__122__compressed_pair_elemINS_9allocatorINS_4pairINS2_IiiEES3_EEEELi1ELb1EEC2B8ue170006ENS_18__default_init_tagE, symObjAddr: 0x2468, symBinAddr: 0x100003F9C, symSize: 0x2C }
  - { offsetInCU: 0xCCFE, offset: 0xCCFE, size: 0x8, addend: 0x0, symName: __ZNSt3__19allocatorINS_4pairINS1_IiiEES2_EEEC2B8ue170006Ev, symObjAddr: 0x2494, symBinAddr: 0x100003FC8, symSize: 0x2C }
  - { offsetInCU: 0xCD28, offset: 0xCD28, size: 0x8, addend: 0x0, symName: __ZNSt3__116__non_trivial_ifILb1ENS_9allocatorINS_4pairINS2_IiiEES3_EEEEEC2B8ue170006Ev, symObjAddr: 0x24C0, symBinAddr: 0x100003FF4, symSize: 0x14 }
  - { offsetInCU: 0xCD52, offset: 0xCD52, size: 0x8, addend: 0x0, symName: __ZNSt3__15dequeINS_4pairINS1_IiiEES2_EENS_9allocatorIS3_EEE9push_backERKS3_, symObjAddr: 0x24D4, symBinAddr: 0x100004008, symSize: 0xAC }
  - { offsetInCU: 0xCD98, offset: 0xCD98, size: 0x8, addend: 0x0, symName: __ZNKSt3__15dequeINS_4pairINS1_IiiEES2_EENS_9allocatorIS3_EEE12__back_spareB8ue170006Ev, symObjAddr: 0x2580, symBinAddr: 0x1000040B4, symSize: 0x54 }
  - { offsetInCU: 0xCDBE, offset: 0xCDBE, size: 0x8, addend: 0x0, symName: __ZNSt3__15dequeINS_4pairINS1_IiiEES2_EENS_9allocatorIS3_EEE19__add_back_capacityEv, symObjAddr: 0x25D4, symBinAddr: 0x100004108, symSize: 0x364 }
  - { offsetInCU: 0xCE76, offset: 0xCE76, size: 0x8, addend: 0x0, symName: __ZNKSt3__15dequeINS_4pairINS1_IiiEES2_EENS_9allocatorIS3_EEE24__annotate_increase_backB8ue170006Em, symObjAddr: 0x2938, symBinAddr: 0x10000446C, symSize: 0x7C }
  - { offsetInCU: 0xCEAB, offset: 0xCEAB, size: 0x8, addend: 0x0, symName: __ZNSt3__116allocator_traitsINS_9allocatorINS_4pairINS2_IiiEES3_EEEEE9constructB8ue170006IS4_JRKS4_EvEEvRS5_PT_DpOT0_, symObjAddr: 0x29B4, symBinAddr: 0x1000044E8, symSize: 0x34 }
  - { offsetInCU: 0xCF02, offset: 0xCF02, size: 0x8, addend: 0x0, symName: __ZNKSt3__15dequeINS_4pairINS1_IiiEES2_EENS_9allocatorIS3_EEE10__capacityB8ue170006Ev, symObjAddr: 0x29E8, symBinAddr: 0x10000451C, symSize: 0x60 }
  - { offsetInCU: 0xCF28, offset: 0xCF28, size: 0x8, addend: 0x0, symName: __ZNKSt3__15dequeINS_4pairINS1_IiiEES2_EENS_9allocatorIS3_EEE13__front_spareB8ue170006Ev, symObjAddr: 0x2A48, symBinAddr: 0x10000457C, symSize: 0x18 }
  - { offsetInCU: 0xCF4E, offset: 0xCF4E, size: 0x8, addend: 0x0, symName: __ZNSt3__114__split_bufferIPNS_4pairINS1_IiiEES2_EENS_9allocatorIS4_EEE9push_backB8ue170006ERKS4_, symObjAddr: 0x2A60, symBinAddr: 0x100004594, symSize: 0x270 }
  - { offsetInCU: 0xCFC7, offset: 0xCFC7, size: 0x8, addend: 0x0, symName: __ZNKSt3__114__split_bufferIPNS_4pairINS1_IiiEES2_EENS_9allocatorIS4_EEE12__back_spareB8ue170006Ev, symObjAddr: 0x2CD0, symBinAddr: 0x100004804, symSize: 0x40 }
  - { offsetInCU: 0xCFED, offset: 0xCFED, size: 0x8, addend: 0x0, symName: __ZNSt3__114__split_bufferIPNS_4pairINS1_IiiEES2_EENS_9allocatorIS4_EEE9push_backEOS4_, symObjAddr: 0x2D10, symBinAddr: 0x100004844, symSize: 0x270 }
  - { offsetInCU: 0xD066, offset: 0xD066, size: 0x8, addend: 0x0, symName: __ZNSt3__116allocator_traitsINS_9allocatorINS_4pairINS2_IiiEES3_EEEEE8allocateB8ue170006ERS5_m, symObjAddr: 0x2F80, symBinAddr: 0x100004AB4, symSize: 0x2C }
  - { offsetInCU: 0xD099, offset: 0xD099, size: 0x8, addend: 0x0, symName: __ZNSt3__114__split_bufferIPNS_4pairINS1_IiiEES2_EENS_9allocatorIS4_EEE10push_frontEOS4_, symObjAddr: 0x2FAC, symBinAddr: 0x100004AE0, symSize: 0x26C }
  - { offsetInCU: 0xD112, offset: 0xD112, size: 0x8, addend: 0x0, symName: __ZNSt3__114__split_bufferIPNS_4pairINS1_IiiEES2_EERNS_9allocatorIS4_EEEC1EmmS7_, symObjAddr: 0x3244, symBinAddr: 0x100004D78, symSize: 0x44 }
  - { offsetInCU: 0xD16D, offset: 0xD16D, size: 0x8, addend: 0x0, symName: __ZNSt3__122__allocator_destructorINS_9allocatorINS_4pairINS2_IiiEES3_EEEEEC1B8ue170006ERS5_m, symObjAddr: 0x3288, symBinAddr: 0x100004DBC, symSize: 0x3C }
  - { offsetInCU: 0xD235, offset: 0xD235, size: 0x8, addend: 0x0, symName: __ZNSt3__110unique_ptrIPNS_4pairINS1_IiiEES2_EENS_22__allocator_destructorINS_9allocatorIS3_EEEEEC1B8ue170006ILb1EvEES4_NS_16__dependent_typeINS_27__unique_ptr_deleter_sfinaeIS8_EEXT_EE20__good_rval_ref_typeE, symObjAddr: 0x32C4, symBinAddr: 0x100004DF8, symSize: 0x3C }
  - { offsetInCU: 0xD286, offset: 0xD286, size: 0x8, addend: 0x0, symName: __ZNSt3__114__split_bufferIPNS_4pairINS1_IiiEES2_EERNS_9allocatorIS4_EEE9push_backEOS4_, symObjAddr: 0x3300, symBinAddr: 0x100004E34, symSize: 0x270 }
  - { offsetInCU: 0xD2FF, offset: 0xD2FF, size: 0x8, addend: 0x0, symName: __ZNKSt3__110unique_ptrIPNS_4pairINS1_IiiEES2_EENS_22__allocator_destructorINS_9allocatorIS3_EEEEE3getB8ue170006Ev, symObjAddr: 0x3570, symBinAddr: 0x1000050A4, symSize: 0x28 }
  - { offsetInCU: 0xD325, offset: 0xD325, size: 0x8, addend: 0x0, symName: __ZNSt3__110unique_ptrIPNS_4pairINS1_IiiEES2_EENS_22__allocator_destructorINS_9allocatorIS3_EEEEE7releaseB8ue170006Ev, symObjAddr: 0x3598, symBinAddr: 0x1000050CC, symSize: 0x44 }
  - { offsetInCU: 0xD35A, offset: 0xD35A, size: 0x8, addend: 0x0, symName: __ZNSt3__114__split_bufferIPNS_4pairINS1_IiiEES2_EERNS_9allocatorIS4_EEE10push_frontERKS4_, symObjAddr: 0x35DC, symBinAddr: 0x100005110, symSize: 0x26C }
  - { offsetInCU: 0xD3D3, offset: 0xD3D3, size: 0x8, addend: 0x0, symName: __ZNSt3__114__split_bufferIPNS_4pairINS1_IiiEES2_EENS_9allocatorIS4_EEE9__end_capB8ue170006Ev, symObjAddr: 0x3884, symBinAddr: 0x1000053B8, symSize: 0x28 }
  - { offsetInCU: 0xD3F9, offset: 0xD3F9, size: 0x8, addend: 0x0, symName: __ZNSt3__114__split_bufferIPNS_4pairINS1_IiiEES2_EERNS_9allocatorIS4_EEE9__end_capB8ue170006Ev, symObjAddr: 0x38AC, symBinAddr: 0x1000053E0, symSize: 0x28 }
  - { offsetInCU: 0xD41F, offset: 0xD41F, size: 0x8, addend: 0x0, symName: __ZNSt3__110unique_ptrIPNS_4pairINS1_IiiEES2_EENS_22__allocator_destructorINS_9allocatorIS3_EEEEED1B8ue170006Ev, symObjAddr: 0x38D4, symBinAddr: 0x100005408, symSize: 0x2C }
  - { offsetInCU: 0xD449, offset: 0xD449, size: 0x8, addend: 0x0, symName: __ZNSt3__114__split_bufferIPNS_4pairINS1_IiiEES2_EERNS_9allocatorIS4_EEED1Ev, symObjAddr: 0x3900, symBinAddr: 0x100005434, symSize: 0x2C }
  - { offsetInCU: 0xD475, offset: 0xD475, size: 0x8, addend: 0x0, symName: __ZNSt3__114__split_bufferIPNS_4pairINS1_IiiEES2_EERNS_9allocatorIS4_EEE18__construct_at_endINS_13move_iteratorIPS4_EEEENS_9enable_ifIXsr31__has_forward_iterator_categoryIT_EE5valueEvE4typeESE_SE_, symObjAddr: 0x396C, symBinAddr: 0x1000054A0, symSize: 0x60 }
  - { offsetInCU: 0xD4C2, offset: 0xD4C2, size: 0x8, addend: 0x0, symName: __ZNSt3__113move_iteratorIPPNS_4pairINS1_IiiEES2_EEEC1B8ue170006ES5_, symObjAddr: 0x39CC, symBinAddr: 0x100005500, symSize: 0x34 }
  - { offsetInCU: 0xD4FA, offset: 0xD4FA, size: 0x8, addend: 0x0, symName: __ZNSt3__116allocator_traitsINS_9allocatorIPNS_4pairINS2_IiiEES3_EEEEE9constructB8ue170006IS5_JRKS5_EvEEvRS6_PT_DpOT0_, symObjAddr: 0x3A00, symBinAddr: 0x100005534, symSize: 0x34 }
  - { offsetInCU: 0xD574, offset: 0xD574, size: 0x8, addend: 0x0, symName: __ZNKSt3__114__move_trivialclB8ue170006IPNS_4pairINS2_IiiEES3_EES5_Li0EEENS2_IPT_PT0_EES7_S7_S9_, symObjAddr: 0x3BD0, symBinAddr: 0x100005704, symSize: 0x48 }
  - { offsetInCU: 0xD5DC, offset: 0xD5DC, size: 0x8, addend: 0x0, symName: __ZNSt3__14pairIPPNS0_INS0_IiiEES1_EES4_EC1B8ue170006ERKS4_S7_, symObjAddr: 0x3E48, symBinAddr: 0x10000597C, symSize: 0x3C }
  - { offsetInCU: 0xD622, offset: 0xD622, size: 0x8, addend: 0x0, symName: __ZNSt3__14pairIPPNS0_INS0_IiiEES1_EES4_EC2B8ue170006ERKS4_S7_, symObjAddr: 0x3E84, symBinAddr: 0x1000059B8, symSize: 0x34 }
  - { offsetInCU: 0xD668, offset: 0xD668, size: 0x8, addend: 0x0, symName: __ZNSt3__118__unwrap_iter_implIPPNS_4pairINS1_IiiEES2_EELb1EE8__unwrapB8ue170006ES5_, symObjAddr: 0x3EB8, symBinAddr: 0x1000059EC, symSize: 0x24 }
  - { offsetInCU: 0xD68B, offset: 0xD68B, size: 0x8, addend: 0x0, symName: __ZNSt3__118__unwrap_iter_implIPPNS_4pairINS1_IiiEES2_EELb1EE8__rewrapB8ue170006ES5_S5_, symObjAddr: 0x3EDC, symBinAddr: 0x100005A10, symSize: 0x50 }
  - { offsetInCU: 0xD6BC, offset: 0xD6BC, size: 0x8, addend: 0x0, symName: __ZNSt3__114__split_bufferIPNS_4pairINS1_IiiEES2_EERNS_9allocatorIS4_EEE28__construct_at_end_with_sizeINS_13move_iteratorIPS4_EEEEvT_m, symObjAddr: 0x3F2C, symBinAddr: 0x100005A60, symSize: 0xE4 }
  - { offsetInCU: 0xD722, offset: 0xD722, size: 0x8, addend: 0x0, symName: __ZNSt3__114__split_bufferIPNS_4pairINS1_IiiEES2_EERNS_9allocatorIS4_EEE21_ConstructTransactionC1B8ue170006EPPS4_m, symObjAddr: 0x404C, symBinAddr: 0x100005B80, symSize: 0x3C }
  - { offsetInCU: 0xD768, offset: 0xD768, size: 0x8, addend: 0x0, symName: __ZNSt3__116allocator_traitsINS_9allocatorIPNS_4pairINS2_IiiEES3_EEEEE9constructB8ue170006IS5_JS5_EvEEvRS6_PT_DpOT0_, symObjAddr: 0x4088, symBinAddr: 0x100005BBC, symSize: 0x34 }
  - { offsetInCU: 0xD7BF, offset: 0xD7BF, size: 0x8, addend: 0x0, symName: __ZNSt3__114__split_bufferIPNS_4pairINS1_IiiEES2_EERNS_9allocatorIS4_EEE7__allocB8ue170006Ev, symObjAddr: 0x40BC, symBinAddr: 0x100005BF0, symSize: 0x28 }
  - { offsetInCU: 0xD7E5, offset: 0xD7E5, size: 0x8, addend: 0x0, symName: __ZNKSt3__113move_iteratorIPPNS_4pairINS1_IiiEES2_EEEdeB8ue170006Ev, symObjAddr: 0x40E4, symBinAddr: 0x100005C18, symSize: 0x18 }
  - { offsetInCU: 0xD80B, offset: 0xD80B, size: 0x8, addend: 0x0, symName: __ZNSt3__113move_iteratorIPPNS_4pairINS1_IiiEES2_EEEppB8ue170006Ev, symObjAddr: 0x40FC, symBinAddr: 0x100005C30, symSize: 0x20 }
  - { offsetInCU: 0xD831, offset: 0xD831, size: 0x8, addend: 0x0, symName: __ZNSt3__114__split_bufferIPNS_4pairINS1_IiiEES2_EERNS_9allocatorIS4_EEE21_ConstructTransactionD1B8ue170006Ev, symObjAddr: 0x411C, symBinAddr: 0x100005C50, symSize: 0x2C }
  - { offsetInCU: 0xD85B, offset: 0xD85B, size: 0x8, addend: 0x0, symName: __ZNSt3__114__split_bufferIPNS_4pairINS1_IiiEES2_EERNS_9allocatorIS4_EEE21_ConstructTransactionC2B8ue170006EPPS4_m, symObjAddr: 0x4148, symBinAddr: 0x100005C7C, symSize: 0x44 }
  - { offsetInCU: 0xD8A1, offset: 0xD8A1, size: 0x8, addend: 0x0, symName: __ZNSt3__19allocatorIPNS_4pairINS1_IiiEES2_EEE9constructB8ue170006IS4_JS4_EEEvPT_DpOT0_, symObjAddr: 0x418C, symBinAddr: 0x100005CC0, symSize: 0x28 }
  - { offsetInCU: 0xD8F7, offset: 0xD8F7, size: 0x8, addend: 0x0, symName: __ZNSt3__117__compressed_pairIPPNS_4pairINS1_IiiEES2_EERNS_9allocatorIS4_EEE6secondB8ue170006Ev, symObjAddr: 0x41B4, symBinAddr: 0x100005CE8, symSize: 0x28 }
  - { offsetInCU: 0xD91D, offset: 0xD91D, size: 0x8, addend: 0x0, symName: __ZNSt3__122__compressed_pair_elemIRNS_9allocatorIPNS_4pairINS2_IiiEES3_EEEELi1ELb0EE5__getB8ue170006Ev, symObjAddr: 0x41DC, symBinAddr: 0x100005D10, symSize: 0x18 }
  - { offsetInCU: 0xD943, offset: 0xD943, size: 0x8, addend: 0x0, symName: __ZNSt3__114__split_bufferIPNS_4pairINS1_IiiEES2_EERNS_9allocatorIS4_EEE21_ConstructTransactionD2B8ue170006Ev, symObjAddr: 0x41F4, symBinAddr: 0x100005D28, symSize: 0x20 }
  - { offsetInCU: 0xD96D, offset: 0xD96D, size: 0x8, addend: 0x0, symName: __ZNKSt3__113move_iteratorIPPNS_4pairINS1_IiiEES2_EEE4baseB8ue170006Ev, symObjAddr: 0x428C, symBinAddr: 0x100005DC0, symSize: 0x18 }
  - { offsetInCU: 0xD993, offset: 0xD993, size: 0x8, addend: 0x0, symName: __ZNSt3__113move_iteratorIPPNS_4pairINS1_IiiEES2_EEEC2B8ue170006ES5_, symObjAddr: 0x42A4, symBinAddr: 0x100005DD8, symSize: 0x20 }
  - { offsetInCU: 0xD9CB, offset: 0xD9CB, size: 0x8, addend: 0x0, symName: __ZNSt3__19allocatorIPNS_4pairINS1_IiiEES2_EEE9constructB8ue170006IS4_JRKS4_EEEvPT_DpOT0_, symObjAddr: 0x42C4, symBinAddr: 0x100005DF8, symSize: 0x28 }
  - { offsetInCU: 0xDA21, offset: 0xDA21, size: 0x8, addend: 0x0, symName: __ZNSt3__19allocatorINS_4pairINS1_IiiEES2_EEE8allocateB8ue170006Em, symObjAddr: 0x42EC, symBinAddr: 0x100005E20, symSize: 0x84 }
  - { offsetInCU: 0xDA5F, offset: 0xDA5F, size: 0x8, addend: 0x0, symName: __ZNSt3__116allocator_traitsINS_9allocatorINS_4pairINS2_IiiEES3_EEEEE8max_sizeB8ue170006IS5_vEEmRKS5_, symObjAddr: 0x4370, symBinAddr: 0x100005EA4, symSize: 0x24 }
  - { offsetInCU: 0xDA8D, offset: 0xDA8D, size: 0x8, addend: 0x0, symName: __ZNKSt3__19allocatorINS_4pairINS1_IiiEES2_EEE8max_sizeB8ue170006Ev, symObjAddr: 0x43F0, symBinAddr: 0x100005F24, symSize: 0x14 }
  - { offsetInCU: 0xDABD, offset: 0xDABD, size: 0x8, addend: 0x0, symName: __ZNKSt3__123__move_backward_trivialclB8ue170006IPNS_4pairINS2_IiiEES3_EES5_Li0EEENS2_IPT_PT0_EES7_S7_S9_, symObjAddr: 0x45A4, symBinAddr: 0x1000060D8, symSize: 0x48 }
  - { offsetInCU: 0xDB2F, offset: 0xDB2F, size: 0x8, addend: 0x0, symName: __ZNKSt3__16__lessIvvEclB8ue170006ImmEEbRKT_RKT0_, symObjAddr: 0x4708, symBinAddr: 0x10000623C, symSize: 0x34 }
  - { offsetInCU: 0xDB83, offset: 0xDB83, size: 0x8, addend: 0x0, symName: __ZNSt3__114__split_bufferIPNS_4pairINS1_IiiEES2_EERNS_9allocatorIS4_EEEC2EmmS7_, symObjAddr: 0x473C, symBinAddr: 0x100006270, symSize: 0xD4 }
  - { offsetInCU: 0xDBF7, offset: 0xDBF7, size: 0x8, addend: 0x0, symName: __ZNSt3__117__compressed_pairIPPNS_4pairINS1_IiiEES2_EERNS_9allocatorIS4_EEEC1B8ue170006IDnS8_EEOT_OT0_, symObjAddr: 0x4810, symBinAddr: 0x100006344, symSize: 0x3C }
  - { offsetInCU: 0xDC4F, offset: 0xDC4F, size: 0x8, addend: 0x0, symName: __ZNSt3__117__compressed_pairIPPNS_4pairINS1_IiiEES2_EERNS_9allocatorIS4_EEEC2B8ue170006IDnS8_EEOT_OT0_, symObjAddr: 0x488C, symBinAddr: 0x1000063C0, symSize: 0x48 }
  - { offsetInCU: 0xDCA7, offset: 0xDCA7, size: 0x8, addend: 0x0, symName: __ZNSt3__122__compressed_pair_elemIRNS_9allocatorIPNS_4pairINS2_IiiEES3_EEEELi1ELb0EEC2B8ue170006IS7_vEEOT_, symObjAddr: 0x48D4, symBinAddr: 0x100006408, symSize: 0x20 }
  - { offsetInCU: 0xDCE9, offset: 0xDCE9, size: 0x8, addend: 0x0, symName: __ZNSt3__19allocatorIPNS_4pairINS1_IiiEES2_EEE8allocateB8ue170006Em, symObjAddr: 0x48F4, symBinAddr: 0x100006428, symSize: 0x84 }
  - { offsetInCU: 0xDD27, offset: 0xDD27, size: 0x8, addend: 0x0, symName: __ZNSt3__116allocator_traitsINS_9allocatorIPNS_4pairINS2_IiiEES3_EEEEE8max_sizeB8ue170006IS6_vEEmRKS6_, symObjAddr: 0x4978, symBinAddr: 0x1000064AC, symSize: 0x24 }
  - { offsetInCU: 0xDD55, offset: 0xDD55, size: 0x8, addend: 0x0, symName: __ZNKSt3__19allocatorIPNS_4pairINS1_IiiEES2_EEE8max_sizeB8ue170006Ev, symObjAddr: 0x499C, symBinAddr: 0x1000064D0, symSize: 0x14 }
  - { offsetInCU: 0xDD7B, offset: 0xDD7B, size: 0x8, addend: 0x0, symName: __ZNSt3__122__allocator_destructorINS_9allocatorINS_4pairINS2_IiiEES3_EEEEEC2B8ue170006ERS5_m, symObjAddr: 0x49B0, symBinAddr: 0x1000064E4, symSize: 0x2C }
  - { offsetInCU: 0xDDC1, offset: 0xDDC1, size: 0x8, addend: 0x0, symName: __ZNSt3__110unique_ptrIPNS_4pairINS1_IiiEES2_EENS_22__allocator_destructorINS_9allocatorIS3_EEEEEC2B8ue170006ILb1EvEES4_NS_16__dependent_typeINS_27__unique_ptr_deleter_sfinaeIS8_EEXT_EE20__good_rval_ref_typeE, symObjAddr: 0x49DC, symBinAddr: 0x100006510, symSize: 0x5C }
  - { offsetInCU: 0xDE12, offset: 0xDE12, size: 0x8, addend: 0x0, symName: __ZNSt3__117__compressed_pairIPNS_4pairINS1_IiiEES2_EENS_22__allocator_destructorINS_9allocatorIS3_EEEEEC1B8ue170006IRS4_S8_EEOT_OT0_, symObjAddr: 0x4A38, symBinAddr: 0x10000656C, symSize: 0x3C }
  - { offsetInCU: 0xDE6A, offset: 0xDE6A, size: 0x8, addend: 0x0, symName: __ZNSt3__117__compressed_pairIPNS_4pairINS1_IiiEES2_EENS_22__allocator_destructorINS_9allocatorIS3_EEEEEC2B8ue170006IRS4_S8_EEOT_OT0_, symObjAddr: 0x4A74, symBinAddr: 0x1000065A8, symSize: 0x48 }
  - { offsetInCU: 0xDEC2, offset: 0xDEC2, size: 0x8, addend: 0x0, symName: __ZNSt3__122__compressed_pair_elemIPNS_4pairINS1_IiiEES2_EELi0ELb0EEC2B8ue170006IRS4_vEEOT_, symObjAddr: 0x4ABC, symBinAddr: 0x1000065F0, symSize: 0x24 }
  - { offsetInCU: 0xDF04, offset: 0xDF04, size: 0x8, addend: 0x0, symName: __ZNSt3__122__compressed_pair_elemINS_22__allocator_destructorINS_9allocatorINS_4pairINS3_IiiEES4_EEEEEELi1ELb0EEC2B8ue170006IS7_vEEOT_, symObjAddr: 0x4AE0, symBinAddr: 0x100006614, symSize: 0x24 }
  - { offsetInCU: 0xDF46, offset: 0xDF46, size: 0x8, addend: 0x0, symName: __ZNKSt3__117__compressed_pairIPNS_4pairINS1_IiiEES2_EENS_22__allocator_destructorINS_9allocatorIS3_EEEEE5firstB8ue170006Ev, symObjAddr: 0x4B04, symBinAddr: 0x100006638, symSize: 0x24 }
  - { offsetInCU: 0xDF6C, offset: 0xDF6C, size: 0x8, addend: 0x0, symName: __ZNKSt3__122__compressed_pair_elemIPNS_4pairINS1_IiiEES2_EELi0ELb0EE5__getB8ue170006Ev, symObjAddr: 0x4B28, symBinAddr: 0x10000665C, symSize: 0x14 }
  - { offsetInCU: 0xDF92, offset: 0xDF92, size: 0x8, addend: 0x0, symName: __ZNSt3__117__compressed_pairIPNS_4pairINS1_IiiEES2_EENS_22__allocator_destructorINS_9allocatorIS3_EEEEE5firstB8ue170006Ev, symObjAddr: 0x4B3C, symBinAddr: 0x100006670, symSize: 0x24 }
  - { offsetInCU: 0xDFB8, offset: 0xDFB8, size: 0x8, addend: 0x0, symName: __ZNSt3__122__compressed_pair_elemIPNS_4pairINS1_IiiEES2_EELi0ELb0EE5__getB8ue170006Ev, symObjAddr: 0x4B60, symBinAddr: 0x100006694, symSize: 0x14 }
  - { offsetInCU: 0xDFDE, offset: 0xDFDE, size: 0x8, addend: 0x0, symName: __ZNSt3__117__compressed_pairIPPNS_4pairINS1_IiiEES2_EENS_9allocatorIS4_EEE5firstB8ue170006Ev, symObjAddr: 0x4B74, symBinAddr: 0x1000066A8, symSize: 0x24 }
  - { offsetInCU: 0xE004, offset: 0xE004, size: 0x8, addend: 0x0, symName: __ZNSt3__122__compressed_pair_elemIPPNS_4pairINS1_IiiEES2_EELi0ELb0EE5__getB8ue170006Ev, symObjAddr: 0x4B98, symBinAddr: 0x1000066CC, symSize: 0x14 }
  - { offsetInCU: 0xE02A, offset: 0xE02A, size: 0x8, addend: 0x0, symName: __ZNSt3__117__compressed_pairIPPNS_4pairINS1_IiiEES2_EERNS_9allocatorIS4_EEE5firstB8ue170006Ev, symObjAddr: 0x4BAC, symBinAddr: 0x1000066E0, symSize: 0x24 }
  - { offsetInCU: 0xE050, offset: 0xE050, size: 0x8, addend: 0x0, symName: __ZNSt3__110unique_ptrIPNS_4pairINS1_IiiEES2_EENS_22__allocator_destructorINS_9allocatorIS3_EEEEED2B8ue170006Ev, symObjAddr: 0x4BD0, symBinAddr: 0x100006704, symSize: 0x30 }
  - { offsetInCU: 0xE07A, offset: 0xE07A, size: 0x8, addend: 0x0, symName: __ZNSt3__110unique_ptrIPNS_4pairINS1_IiiEES2_EENS_22__allocator_destructorINS_9allocatorIS3_EEEEE5resetB8ue170006ES4_, symObjAddr: 0x4C00, symBinAddr: 0x100006734, symSize: 0x78 }
  - { offsetInCU: 0xE0BE, offset: 0xE0BE, size: 0x8, addend: 0x0, symName: __ZNSt3__117__compressed_pairIPNS_4pairINS1_IiiEES2_EENS_22__allocator_destructorINS_9allocatorIS3_EEEEE6secondB8ue170006Ev, symObjAddr: 0x4C78, symBinAddr: 0x1000067AC, symSize: 0x28 }
  - { offsetInCU: 0xE0E4, offset: 0xE0E4, size: 0x8, addend: 0x0, symName: __ZNSt3__122__allocator_destructorINS_9allocatorINS_4pairINS2_IiiEES3_EEEEEclB8ue170006EPS4_, symObjAddr: 0x4CA0, symBinAddr: 0x1000067D4, symSize: 0x34 }
  - { offsetInCU: 0xE118, offset: 0xE118, size: 0x8, addend: 0x0, symName: __ZNSt3__122__compressed_pair_elemINS_22__allocator_destructorINS_9allocatorINS_4pairINS3_IiiEES4_EEEEEELi1ELb0EE5__getB8ue170006Ev, symObjAddr: 0x4CD4, symBinAddr: 0x100006808, symSize: 0x14 }
  - { offsetInCU: 0xE13E, offset: 0xE13E, size: 0x8, addend: 0x0, symName: __ZNSt3__114__split_bufferIPNS_4pairINS1_IiiEES2_EERNS_9allocatorIS4_EEED2Ev, symObjAddr: 0x4CE8, symBinAddr: 0x10000681C, symSize: 0x80 }
  - { offsetInCU: 0xE16A, offset: 0xE16A, size: 0x8, addend: 0x0, symName: __ZNSt3__114__split_bufferIPNS_4pairINS1_IiiEES2_EERNS_9allocatorIS4_EEE5clearB8ue170006Ev, symObjAddr: 0x4D68, symBinAddr: 0x10000689C, symSize: 0x28 }
  - { offsetInCU: 0xE190, offset: 0xE190, size: 0x8, addend: 0x0, symName: __ZNKSt3__114__split_bufferIPNS_4pairINS1_IiiEES2_EERNS_9allocatorIS4_EEE8capacityB8ue170006Ev, symObjAddr: 0x4D90, symBinAddr: 0x1000068C4, symSize: 0x40 }
  - { offsetInCU: 0xE1B6, offset: 0xE1B6, size: 0x8, addend: 0x0, symName: __ZNSt3__114__split_bufferIPNS_4pairINS1_IiiEES2_EERNS_9allocatorIS4_EEE17__destruct_at_endB8ue170006EPS4_, symObjAddr: 0x4DD0, symBinAddr: 0x100006904, symSize: 0x2C }
  - { offsetInCU: 0xE1EA, offset: 0xE1EA, size: 0x8, addend: 0x0, symName: __ZNSt3__114__split_bufferIPNS_4pairINS1_IiiEES2_EERNS_9allocatorIS4_EEE17__destruct_at_endB8ue170006EPS4_NS_17integral_constantIbLb0EEE, symObjAddr: 0x4DFC, symBinAddr: 0x100006930, symSize: 0x94 }
  - { offsetInCU: 0xE22A, offset: 0xE22A, size: 0x8, addend: 0x0, symName: __ZNKSt3__114__split_bufferIPNS_4pairINS1_IiiEES2_EERNS_9allocatorIS4_EEE9__end_capB8ue170006Ev, symObjAddr: 0x4E90, symBinAddr: 0x1000069C4, symSize: 0x28 }
  - { offsetInCU: 0xE250, offset: 0xE250, size: 0x8, addend: 0x0, symName: __ZNKSt3__117__compressed_pairIPPNS_4pairINS1_IiiEES2_EERNS_9allocatorIS4_EEE5firstB8ue170006Ev, symObjAddr: 0x4EB8, symBinAddr: 0x1000069EC, symSize: 0x24 }
  - { offsetInCU: 0xE276, offset: 0xE276, size: 0x8, addend: 0x0, symName: __ZNSt3__19allocatorINS_4pairINS1_IiiEES2_EEE9constructB8ue170006IS3_JRKS3_EEEvPT_DpOT0_, symObjAddr: 0x4EDC, symBinAddr: 0x100006A10, symSize: 0x28 }
  - { offsetInCU: 0xE2CC, offset: 0xE2CC, size: 0x8, addend: 0x0, symName: __ZNSt3__14pairIiiEC1B8ue170006ERKiS3_, symObjAddr: 0x4F04, symBinAddr: 0x100006A38, symSize: 0x3C }
  - { offsetInCU: 0xE312, offset: 0xE312, size: 0x8, addend: 0x0, symName: __ZNSt3__14pairIiiEC2B8ue170006ERKiS3_, symObjAddr: 0x4F40, symBinAddr: 0x100006A74, symSize: 0x34 }
  - { offsetInCU: 0xE358, offset: 0xE358, size: 0x8, addend: 0x0, symName: __ZNSt3__14pairINS0_IiiEES1_EC1B8ue170006ERKS1_S4_, symObjAddr: 0x4F74, symBinAddr: 0x100006AA8, symSize: 0x3C }
  - { offsetInCU: 0xE39E, offset: 0xE39E, size: 0x8, addend: 0x0, symName: __ZNSt3__14pairINS0_IiiEES1_EC2B8ue170006ERKS1_S4_, symObjAddr: 0x4FB0, symBinAddr: 0x100006AE4, symSize: 0x34 }
  - { offsetInCU: 0xE3E4, offset: 0xE3E4, size: 0x8, addend: 0x0, symName: __ZNSt3__15dequeINS_4pairINS1_IiiEES2_EENS_9allocatorIS3_EEE5frontEv, symObjAddr: 0x4FE4, symBinAddr: 0x100006B18, symSize: 0x50 }
  - { offsetInCU: 0xE40C, offset: 0xE40C, size: 0x8, addend: 0x0, symName: __ZNSt3__15dequeINS_4pairINS1_IiiEES2_EENS_9allocatorIS3_EEE9pop_frontEv, symObjAddr: 0x5034, symBinAddr: 0x100006B68, symSize: 0xD4 }
  - { offsetInCU: 0xE461, offset: 0xE461, size: 0x8, addend: 0x0, symName: __ZNKSt3__15dequeINS_4pairINS1_IiiEES2_EENS_9allocatorIS3_EEE23__annotate_shrink_frontB8ue170006Emm, symObjAddr: 0x5108, symBinAddr: 0x100006C3C, symSize: 0x70 }
  - { offsetInCU: 0xE4A5, offset: 0xE4A5, size: 0x8, addend: 0x0, symName: __ZNSt3__15dequeINS_4pairINS1_IiiEES2_EENS_9allocatorIS3_EEE26__maybe_remove_front_spareB8ue170006Eb, symObjAddr: 0x5178, symBinAddr: 0x100006CAC, symSize: 0xEC }
  - { offsetInCU: 0xE4DA, offset: 0xE4DA, size: 0x8, addend: 0x0, symName: __ZNKSt3__15dequeINS_4pairINS1_IiiEES2_EENS_9allocatorIS3_EEE20__front_spare_blocksB8ue170006Ev, symObjAddr: 0x5264, symBinAddr: 0x100006D98, symSize: 0x2C }
  - { offsetInCU: 0xE51E, offset: 0xE51E, size: 0x8, addend: 0x0, symName: __ZNKSt3__113basic_ostreamIcNS_11char_traitsIcEEE6sentrycvbB8ue170006Ev, symObjAddr: 0x5484, symBinAddr: 0x100006FB8, symSize: 0x1C }
  - { offsetInCU: 0xE544, offset: 0xE544, size: 0x8, addend: 0x0, symName: __ZNSt3__119ostreambuf_iteratorIcNS_11char_traitsIcEEEC1B8ue170006ERNS_13basic_ostreamIcS2_EE, symObjAddr: 0x56E8, symBinAddr: 0x10000721C, symSize: 0x34 }
  - { offsetInCU: 0xE57C, offset: 0xE57C, size: 0x8, addend: 0x0, symName: __ZNKSt3__18ios_base5flagsB8ue170006Ev, symObjAddr: 0x571C, symBinAddr: 0x100007250, symSize: 0x18 }
  - { offsetInCU: 0xE5A4, offset: 0xE5A4, size: 0x8, addend: 0x0, symName: __ZNKSt3__19basic_iosIcNS_11char_traitsIcEEE4fillB8ue170006Ev, symObjAddr: 0x5734, symBinAddr: 0x100007268, symSize: 0x64 }
  - { offsetInCU: 0xE5CC, offset: 0xE5CC, size: 0x8, addend: 0x0, symName: __ZNKSt3__119ostreambuf_iteratorIcNS_11char_traitsIcEEE6failedB8ue170006Ev, symObjAddr: 0x5798, symBinAddr: 0x1000072CC, symSize: 0x24 }
  - { offsetInCU: 0xE5F2, offset: 0xE5F2, size: 0x8, addend: 0x0, symName: __ZNKSt3__18ios_base5widthB8ue170006Ev, symObjAddr: 0x57BC, symBinAddr: 0x1000072F0, symSize: 0x18 }
  - { offsetInCU: 0xE61A, offset: 0xE61A, size: 0x8, addend: 0x0, symName: __ZNSt3__115basic_streambufIcNS_11char_traitsIcEEE5sputnB8ue170006EPKcl, symObjAddr: 0x57D4, symBinAddr: 0x100007308, symSize: 0x3C }
  - { offsetInCU: 0xE65C, offset: 0xE65C, size: 0x8, addend: 0x0, symName: __ZNSt3__112basic_stringIcNS_11char_traitsIcEENS_9allocatorIcEEEC1B8ue170006Emc, symObjAddr: 0x5810, symBinAddr: 0x100007344, symSize: 0x3C }
  - { offsetInCU: 0xE6A4, offset: 0xE6A4, size: 0x8, addend: 0x0, symName: __ZNKSt3__112basic_stringIcNS_11char_traitsIcEENS_9allocatorIcEEE4dataB8ue170006Ev, symObjAddr: 0x584C, symBinAddr: 0x100007380, symSize: 0x28 }
  - { offsetInCU: 0xE6CA, offset: 0xE6CA, size: 0x8, addend: 0x0, symName: __ZNSt3__18ios_base5widthB8ue170006El, symObjAddr: 0x5874, symBinAddr: 0x1000073A8, symSize: 0x2C }
  - { offsetInCU: 0xE710, offset: 0xE710, size: 0x8, addend: 0x0, symName: __ZNSt3__112basic_stringIcNS_11char_traitsIcEENS_9allocatorIcEEEC2B8ue170006Emc, symObjAddr: 0x58A0, symBinAddr: 0x1000073D4, symSize: 0x4C }
  - { offsetInCU: 0xE758, offset: 0xE758, size: 0x8, addend: 0x0, symName: __ZNSt3__117__compressed_pairINS_12basic_stringIcNS_11char_traitsIcEENS_9allocatorIcEEE5__repES5_EC1B8ue170006INS_18__default_init_tagESA_EEOT_OT0_, symObjAddr: 0x58EC, symBinAddr: 0x100007420, symSize: 0x3C }
  - { offsetInCU: 0xE7B0, offset: 0xE7B0, size: 0x8, addend: 0x0, symName: __ZNSt3__117__compressed_pairINS_12basic_stringIcNS_11char_traitsIcEENS_9allocatorIcEEE5__repES5_EC2B8ue170006INS_18__default_init_tagESA_EEOT_OT0_, symObjAddr: 0x5928, symBinAddr: 0x10000745C, symSize: 0x3C }
  - { offsetInCU: 0xE808, offset: 0xE808, size: 0x8, addend: 0x0, symName: __ZNSt3__122__compressed_pair_elemINS_12basic_stringIcNS_11char_traitsIcEENS_9allocatorIcEEE5__repELi0ELb0EEC2B8ue170006ENS_18__default_init_tagE, symObjAddr: 0x5964, symBinAddr: 0x100007498, symSize: 0x14 }
  - { offsetInCU: 0xE83C, offset: 0xE83C, size: 0x8, addend: 0x0, symName: __ZNSt3__122__compressed_pair_elemINS_9allocatorIcEELi1ELb1EEC2B8ue170006ENS_18__default_init_tagE, symObjAddr: 0x5978, symBinAddr: 0x1000074AC, symSize: 0x2C }
  - { offsetInCU: 0xE870, offset: 0xE870, size: 0x8, addend: 0x0, symName: __ZNSt3__19allocatorIcEC2B8ue170006Ev, symObjAddr: 0x59A4, symBinAddr: 0x1000074D8, symSize: 0x2C }
  - { offsetInCU: 0xE89A, offset: 0xE89A, size: 0x8, addend: 0x0, symName: __ZNSt3__116__non_trivial_ifILb1ENS_9allocatorIcEEEC2B8ue170006Ev, symObjAddr: 0x59D0, symBinAddr: 0x100007504, symSize: 0x14 }
  - { offsetInCU: 0xE8C4, offset: 0xE8C4, size: 0x8, addend: 0x0, symName: __ZNKSt3__112basic_stringIcNS_11char_traitsIcEENS_9allocatorIcEEE13__get_pointerB8ue170006Ev, symObjAddr: 0x59F8, symBinAddr: 0x10000752C, symSize: 0x54 }
  - { offsetInCU: 0xE8EA, offset: 0xE8EA, size: 0x8, addend: 0x0, symName: __ZNKSt3__112basic_stringIcNS_11char_traitsIcEENS_9allocatorIcEEE9__is_longB8ue170006Ev, symObjAddr: 0x5A4C, symBinAddr: 0x100007580, symSize: 0x74 }
  - { offsetInCU: 0xE910, offset: 0xE910, size: 0x8, addend: 0x0, symName: __ZNKSt3__112basic_stringIcNS_11char_traitsIcEENS_9allocatorIcEEE18__get_long_pointerB8ue170006Ev, symObjAddr: 0x5AC0, symBinAddr: 0x1000075F4, symSize: 0x28 }
  - { offsetInCU: 0xE936, offset: 0xE936, size: 0x8, addend: 0x0, symName: __ZNKSt3__112basic_stringIcNS_11char_traitsIcEENS_9allocatorIcEEE19__get_short_pointerB8ue170006Ev, symObjAddr: 0x5AE8, symBinAddr: 0x10000761C, symSize: 0x28 }
  - { offsetInCU: 0xE95C, offset: 0xE95C, size: 0x8, addend: 0x0, symName: __ZNKSt3__117__compressed_pairINS_12basic_stringIcNS_11char_traitsIcEENS_9allocatorIcEEE5__repES5_E5firstB8ue170006Ev, symObjAddr: 0x5B10, symBinAddr: 0x100007644, symSize: 0x24 }
  - { offsetInCU: 0xE982, offset: 0xE982, size: 0x8, addend: 0x0, symName: __ZNKSt3__122__compressed_pair_elemINS_12basic_stringIcNS_11char_traitsIcEENS_9allocatorIcEEE5__repELi0ELb0EE5__getB8ue170006Ev, symObjAddr: 0x5B34, symBinAddr: 0x100007668, symSize: 0x14 }
  - { offsetInCU: 0xE9A8, offset: 0xE9A8, size: 0x8, addend: 0x0, symName: __ZNSt3__114pointer_traitsIPKcE10pointer_toB8ue170006ERS1_, symObjAddr: 0x5B48, symBinAddr: 0x10000767C, symSize: 0x14 }
  - { offsetInCU: 0xE9CB, offset: 0xE9CB, size: 0x8, addend: 0x0, symName: __ZNSt3__119ostreambuf_iteratorIcNS_11char_traitsIcEEEC2B8ue170006ERNS_13basic_ostreamIcS2_EE, symObjAddr: 0x5B5C, symBinAddr: 0x100007690, symSize: 0x68 }
  - { offsetInCU: 0xEA03, offset: 0xEA03, size: 0x8, addend: 0x0, symName: __ZNKSt3__19basic_iosIcNS_11char_traitsIcEEE5widenB8ue170006Ec, symObjAddr: 0x5BC4, symBinAddr: 0x1000076F8, symSize: 0x8C }
  - { offsetInCU: 0xEA6C, offset: 0xEA6C, size: 0x8, addend: 0x0, symName: __ZNKSt3__15ctypeIcE5widenB8ue170006Ec, symObjAddr: 0x5C7C, symBinAddr: 0x1000077B0, symSize: 0x38 }
...
